target datalayout = "e-m:e-p270:32:32-p271:32:32-p272:64:64-i64:64-i128:128-f80:128-n8:16:32:64-S128"
target triple = "x86_64-pc-linux-gnu"

@_ZN6opencc15SimpleConverterD1Ev = unnamed_addr alias void (ptr), ptr @_ZN6opencc15SimpleConverterD2Ev

; Function Attrs: mustprogress nounwind uwtable
define i32 @opencc_close(ptr noundef %0) #2 {
  %2 = alloca ptr, align 8
  %3 = alloca ptr, align 8
  store ptr %0, ptr %2, align 8, !tbaa !33
  call void @llvm.lifetime.start.p0(i64 8, ptr %3) #4
  %4 = load ptr, ptr %2, align 8, !tbaa !33
  store ptr %4, ptr %3, align 8, !tbaa !12
  %5 = load ptr, ptr %3, align 8, !tbaa !12
  %6 = icmp eq ptr %5, null
  br i1 %6, label %8, label %7

7:                                                ; preds = %1
  call void @_ZN6opencc15SimpleConverterD1Ev(ptr noundef nonnull align 8 dereferenceable(8) %5) #4
  call void @_ZdlPvm(ptr noundef %5, i64 noundef 8) #23
  br label %8

8:                                                ; preds = %7, %1
  call void @llvm.lifetime.end.p0(i64 8, ptr %3) #4
  ret i32 0
}