; Function Attrs: mustprogress nounwind uwtable
define noundef i32 @opencc_close(ptr noundef %0) local_unnamed_addr #1 {
  %2 = icmp eq ptr %0, null
  br i1 %2, label %4, label %3

3:                                                ; preds = %1
  tail call void @_ZN6opencc15SimpleConverterD1Ev(ptr noundef nonnull align 8 dereferenceable(8) %0) #21
  tail call void @_ZdlPvm(ptr noundef nonnull %0, i64 noundef 8) #22
  br label %4

4:                                                ; preds = %3, %1
  ret i32 0
}